target datalayout = "e-m:e-p270:32:32-p271:32:32-p272:64:64-i64:64-i128:128-f80:128-n8:16:32:64-S128"
target triple = "x86_64-pc-linux-gnu"

%struct.OSSL_TIME = type { i64 }

@.str.18 = private unnamed_addr constant [30 x i8] c"../openssl/test/threadstest.c\00", align 1
@contention = internal global i32 0, align 4
@rwtorturelock = internal global ptr null, align 8
@rwwriter_ptr = internal global ptr null, align 8

; Function Attrs: inlinehint nounwind uwtable
define internal i64 @ossl_time2ticks(i64 %0) #6 {
  %2 = alloca %struct.OSSL_TIME, align 8
  %3 = getelementptr inbounds nuw %struct.OSSL_TIME, ptr %2, i32 0, i32 0
  store i64 %0, ptr %3, align 8
  %4 = getelementptr inbounds nuw %struct.OSSL_TIME, ptr %2, i32 0, i32 0
  %5 = load i64, ptr %4, align 8, !tbaa !45
  ret i64 %5
}

; Function Attrs: nounwind uwtable
define internal void @rwwriter_fn(i32 noundef %0, ptr noundef %1) #0 {
  %3 = alloca i32, align 4
  %4 = alloca ptr, align 8
  %5 = alloca i32, align 4
  %6 = alloca ptr, align 8
  %7 = alloca ptr, align 8
  %8 = alloca %struct.OSSL_TIME, align 8
  %9 = alloca %struct.OSSL_TIME, align 8
  %10 = alloca %struct.OSSL_TIME, align 8
  %11 = alloca %struct.OSSL_TIME, align 8
  store i32 %0, ptr %3, align 4, !tbaa !4
  store ptr %1, ptr %4, align 8, !tbaa !47
  call void @llvm.lifetime.start.p0(i64 4, ptr %5) #10
  call void @llvm.lifetime.start.p0(i64 8, ptr %6) #10
  call void @llvm.lifetime.start.p0(i64 8, ptr %7) #10
  call void @llvm.lifetime.start.p0(i64 8, ptr %8) #10
  call void @llvm.lifetime.start.p0(i64 8, ptr %9) #10
  call void @llvm.lifetime.start.p0(i64 8, ptr %10) #10
  %12 = call i64 @ossl_time_now()
  %13 = getelementptr inbounds nuw %struct.OSSL_TIME, ptr %10, i32 0, i32 0
  store i64 %12, ptr %13, align 8
  call void @llvm.memcpy.p0.p0.i64(ptr align 8 %8, ptr align 8 %10, i64 8, i1 false), !tbaa.struct !40
  call void @llvm.lifetime.end.p0(i64 8, ptr %10) #10
  store i32 0, ptr %5, align 4, !tbaa !4
  br label %14

14:                                               ; preds = %61, %2
  %15 = call noalias ptr @CRYPTO_zalloc(i64 noundef 4, ptr noundef null, i32 noundef 0)
  store ptr %15, ptr %7, align 8, !tbaa !47
  %16 = load i32, ptr @contention, align 4, !tbaa !4
  %17 = icmp eq i32 %16, 0
  br i1 %17, label %18, label %19

18:                                               ; preds = %14
  call void @OSSL_sleep(i64 noundef 1000)
  br label %19

19:                                               ; preds = %18, %14
  %20 = load ptr, ptr @rwtorturelock, align 8, !tbaa !13
  %21 = call i32 @CRYPTO_THREAD_write_lock(ptr noundef %20)
  %22 = icmp ne i32 %21, 0
  br i1 %22, label %24, label %23

23:                                               ; preds = %19
  call void @abort() #11
  unreachable

24:                                               ; preds = %19
  %25 = load ptr, ptr @rwwriter_ptr, align 8, !tbaa !47
  %26 = icmp ne ptr %25, null
  br i1 %26, label %27, label %32

27:                                               ; preds = %24
  %28 = load ptr, ptr @rwwriter_ptr, align 8, !tbaa !47
  %29 = load i32, ptr %28, align 4, !tbaa !4
  %30 = add nsw i32 %29, 1
  %31 = load ptr, ptr %7, align 8, !tbaa !47
  store i32 %30, ptr %31, align 4, !tbaa !4
  br label %34

32:                                               ; preds = %24
  %33 = load ptr, ptr %7, align 8, !tbaa !47
  store i32 0, ptr %33, align 4, !tbaa !4
  br label %34

34:                                               ; preds = %32, %27
  %35 = load ptr, ptr @rwwriter_ptr, align 8, !tbaa !47
  store ptr %35, ptr %6, align 8, !tbaa !47
  %36 = load ptr, ptr %7, align 8, !tbaa !47
  store ptr %36, ptr @rwwriter_ptr, align 8, !tbaa !47
  %37 = load ptr, ptr @rwtorturelock, align 8, !tbaa !13
  %38 = call i32 @CRYPTO_THREAD_unlock(ptr noundef %37)
  %39 = icmp ne i32 %38, 0
  br i1 %39, label %41, label %40

40:                                               ; preds = %34
  call void @abort() #11
  unreachable

41:                                               ; preds = %34
  %42 = load ptr, ptr %6, align 8, !tbaa !47
  %43 = icmp ne ptr %42, null
  br i1 %43, label %44, label %46

44:                                               ; preds = %41
  %45 = load ptr, ptr %6, align 8, !tbaa !47
  call void @CRYPTO_free(ptr noundef %45, ptr noundef @.str.18, i32 noundef 142)
  br label %46

46:                                               ; preds = %44, %41
  call void @llvm.lifetime.start.p0(i64 8, ptr %11) #10
  %47 = call i64 @ossl_time_now()
  %48 = getelementptr inbounds nuw %struct.OSSL_TIME, ptr %11, i32 0, i32 0
  store i64 %47, ptr %48, align 8
  call void @llvm.memcpy.p0.p0.i64(ptr align 8 %9, ptr align 8 %11, i64 8, i1 false), !tbaa.struct !40
  call void @llvm.lifetime.end.p0(i64 8, ptr %11) #10
  %49 = getelementptr inbounds nuw %struct.OSSL_TIME, ptr %9, i32 0, i32 0
  %50 = load i64, ptr %49, align 8
  %51 = call i64 @ossl_time2ticks(i64 %50)
  %52 = udiv i64 %51, 1000000000
  %53 = getelementptr inbounds nuw %struct.OSSL_TIME, ptr %8, i32 0, i32 0
  %54 = load i64, ptr %53, align 8
  %55 = call i64 @ossl_time2ticks(i64 %54)
  %56 = udiv i64 %55, 1000000000
  %57 = sub i64 %52, %56
  %58 = icmp uge i64 %57, 4
  br i1 %58, label %59, label %60

59:                                               ; preds = %46
  br label %64

60:                                               ; preds = %46
  br label %61

61:                                               ; preds = %60
  %62 = load i32, ptr %5, align 4, !tbaa !4
  %63 = add nsw i32 %62, 1
  store i32 %63, ptr %5, align 4, !tbaa !4
  br label %14

64:                                               ; preds = %59
  %65 = load i32, ptr %5, align 4, !tbaa !4
  %66 = load ptr, ptr %4, align 8, !tbaa !47
  store i32 %65, ptr %66, align 4, !tbaa !4
  call void @llvm.lifetime.end.p0(i64 8, ptr %9) #10
  call void @llvm.lifetime.end.p0(i64 8, ptr %8) #10
  call void @llvm.lifetime.end.p0(i64 8, ptr %7) #10
  call void @llvm.lifetime.end.p0(i64 8, ptr %6) #10
  call void @llvm.lifetime.end.p0(i64 4, ptr %5) #10
  ret void
}