; Function Attrs: nounwind uwtable
define internal fastcc void @rwwriter_fn(ptr noundef writeonly captures(none) %0) unnamed_addr #1 {
  %2 = tail call i64 @ossl_time_now() #11
  %3 = udiv i64 %2, 1000000000
  br label %4

4:                                                ; preds = %27, %1
  %.0 = phi i32 [ 0, %1 ], [ %28, %27 ]
  %5 = tail call noalias ptr @CRYPTO_zalloc(i64 noundef 4, ptr noundef null, i32 noundef 0) #11
  %.b = load i1, ptr @contention, align 4
  br i1 %.b, label %7, label %6

6:                                                ; preds = %4
  tail call void @OSSL_sleep(i64 noundef 1000) #11
  br label %7

7:                                                ; preds = %6, %4
  %8 = load ptr, ptr @rwtorturelock, align 8, !tbaa !11
  %9 = tail call i32 @CRYPTO_THREAD_write_lock(ptr noundef %8) #11
  %.not = icmp eq i32 %9, 0
  br i1 %.not, label %10, label %11

10:                                               ; preds = %7
  tail call void @abort() #12
  unreachable

11:                                               ; preds = %7
  %12 = load ptr, ptr @rwwriter_ptr, align 8, !tbaa !30
  %.not12 = icmp eq ptr %12, null
  br i1 %.not12, label %16, label %13

13:                                               ; preds = %11
  %14 = load i32, ptr %12, align 4, !tbaa !14
  %15 = add nsw i32 %14, 1
  br label %16

16:                                               ; preds = %11, %13
  %storemerge = phi i32 [ %15, %13 ], [ 0, %11 ]
  store i32 %storemerge, ptr %5, align 4, !tbaa !14
  store ptr %5, ptr @rwwriter_ptr, align 8, !tbaa !30
  %17 = load ptr, ptr @rwtorturelock, align 8, !tbaa !11
  %18 = tail call i32 @CRYPTO_THREAD_unlock(ptr noundef %17) #11
  %.not13 = icmp eq i32 %18, 0
  br i1 %.not13, label %19, label %20

19:                                               ; preds = %16
  tail call void @abort() #12
  unreachable

20:                                               ; preds = %16
  br i1 %.not12, label %22, label %21

21:                                               ; preds = %20
  tail call void @CRYPTO_free(ptr noundef nonnull %12, ptr noundef nonnull @.str.18, i32 noundef 142) #11
  br label %22

22:                                               ; preds = %21, %20
  %23 = tail call i64 @ossl_time_now() #11
  %24 = udiv i64 %23, 1000000000
  %25 = sub nsw i64 %24, %3
  %26 = icmp ugt i64 %25, 3
  br i1 %26, label %29, label %27

27:                                               ; preds = %22
  %28 = add nuw nsw i32 %.0, 1
  br label %4

29:                                               ; preds = %22
  store i32 %.0, ptr %0, align 4, !tbaa !14
  ret void
}